; Function Attrs: mustprogress uwtable
define dso_local noundef zeroext i1 @_ZNK4absl13cord_internal11CordzHandle32DiagnosticsHandleIsSafeToInspectEPKS1_(ptr noundef nonnull readonly align 8 dereferenceable(32) %this, ptr noundef readonly %handle) local_unnamed_addr #0 align 2 personality ptr @__gxx_personality_v0 {
entry:
  %is_snapshot_ = getelementptr inbounds i8, ptr %this, i64 8
  %0 = load i8, ptr %is_snapshot_, align 8
  %1 = and i8 %0, 1
  %tobool.not = icmp eq i8 %1, 0
  br i1 %tobool.not, label %return, label %if.end

if.end:                                           ; preds = %entry
  %cmp = icmp eq ptr %handle, null
  br i1 %cmp, label %return, label %if.end3

if.end3:                                          ; preds = %if.end
  %is_snapshot_4 = getelementptr inbounds i8, ptr %handle, i64 8
  %2 = load i8, ptr %is_snapshot_4, align 8
  %3 = and i8 %2, 1
  %tobool5.not = icmp eq i8 %3, 0
  br i1 %tobool5.not, label %if.end7, label %return

if.end7:                                          ; preds = %if.end3
  %4 = load atomic i8, ptr @_ZGVZN4absl13cord_internal12_GLOBAL__N_111GlobalQueueEvE12global_queue acquire, align 8
  %guard.uninitialized.i = icmp eq i8 %4, 0
  br i1 %guard.uninitialized.i, label %init.check.i, label %_ZN4absl13cord_internal12_GLOBAL__N_111GlobalQueueEv.exit, !prof !5

init.check.i:                                     ; preds = %if.end7
  %5 = tail call i32 @__cxa_guard_acquire(ptr nonnull @_ZGVZN4absl13cord_internal12_GLOBAL__N_111GlobalQueueEvE12global_queue) #11
  %tobool.not.i = icmp eq i32 %5, 0
  br i1 %tobool.not.i, label %_ZN4absl13cord_internal12_GLOBAL__N_111GlobalQueueEv.exit, label %init.i

init.i:                                           ; preds = %init.check.i
  %call.i = invoke noalias noundef nonnull dereferenceable(16) ptr @_Znwm(i64 noundef 16) #12
          to label %invoke.cont2.i unwind label %lpad.i

invoke.cont2.i:                                   ; preds = %init.i
  tail call void @llvm.memset.p0.i64(ptr noundef nonnull align 8 dereferenceable(16) %call.i, i8 0, i64 16, i1 false)
  store ptr %call.i, ptr @_ZZN4absl13cord_internal12_GLOBAL__N_111GlobalQueueEvE12global_queue, align 8
  tail call void @__cxa_guard_release(ptr nonnull @_ZGVZN4absl13cord_internal12_GLOBAL__N_111GlobalQueueEvE12global_queue) #11
  br label %_ZN4absl13cord_internal12_GLOBAL__N_111GlobalQueueEv.exit

lpad.i:                                           ; preds = %init.i
  %6 = landingpad { ptr, i32 }
          cleanup
  tail call void @__cxa_guard_abort(ptr nonnull @_ZGVZN4absl13cord_internal12_GLOBAL__N_111GlobalQueueEvE12global_queue) #11
  resume { ptr, i32 } %6

_ZN4absl13cord_internal12_GLOBAL__N_111GlobalQueueEv.exit: ; preds = %if.end7, %init.check.i, %invoke.cont2.i
  %7 = load ptr, ptr @_ZZN4absl13cord_internal12_GLOBAL__N_111GlobalQueueEvE12global_queue, align 8
  tail call void @_ZN4absl5Mutex4LockEv(ptr noundef nonnull align 8 dereferenceable(8) %7)
  %dq_tail = getelementptr inbounds i8, ptr %7, i64 8
  %8 = load atomic i64, ptr %dq_tail seq_cst, align 8
  %tobool9.not8 = icmp eq i64 %8, 0
  br i1 %tobool9.not8, label %cleanup, label %for.body.preheader

for.body.preheader:                               ; preds = %_ZN4absl13cord_internal12_GLOBAL__N_111GlobalQueueEv.exit
  %9 = inttoptr i64 %8 to ptr
  br label %for.body

for.body:                                         ; preds = %for.body.preheader, %if.end13
  %p.010 = phi ptr [ %11, %if.end13 ], [ %9, %for.body.preheader ]
  %snapshot_found.09 = phi i8 [ %spec.select, %if.end13 ], [ 0, %for.body.preheader ]
  %cmp10 = icmp eq ptr %p.010, %handle
  br i1 %cmp10, label %if.then11, label %if.end13

if.then11:                                        ; preds = %for.body
  %10 = and i8 %snapshot_found.09, 1
  %tobool12.not = icmp eq i8 %10, 0
  br label %cleanup

if.end13:                                         ; preds = %for.body
  %cmp14 = icmp eq ptr %p.010, %this
  %spec.select = select i1 %cmp14, i8 1, i8 %snapshot_found.09
  %dq_prev_ = getelementptr inbounds i8, ptr %p.010, i64 16
  %11 = load ptr, ptr %dq_prev_, align 8
  %tobool9.not = icmp eq ptr %11, null
  br i1 %tobool9.not, label %cleanup, label %for.body, !llvm.loop !9

cleanup:                                          ; preds = %if.end13, %_ZN4absl13cord_internal12_GLOBAL__N_111GlobalQueueEv.exit, %if.then11
  %retval.0 = phi i1 [ %tobool12.not, %if.then11 ], [ true, %_ZN4absl13cord_internal12_GLOBAL__N_111GlobalQueueEv.exit ], [ true, %if.end13 ]
  invoke void @_ZN4absl5Mutex6UnlockEv(ptr noundef nonnull align 8 dereferenceable(8) %7)
          to label %return unwind label %terminate.lpad.i

terminate.lpad.i:                                 ; preds = %cleanup
  %12 = landingpad { ptr, i32 }
          catch ptr null
  %13 = extractvalue { ptr, i32 } %12, 0
  tail call void @__clang_call_terminate(ptr %13) #13
  unreachable

return:                                           ; preds = %cleanup, %if.end3, %if.end, %entry
  %retval.1 = phi i1 [ false, %entry ], [ true, %if.end ], [ false, %if.end3 ], [ %retval.0, %cleanup ]
  ret i1 %retval.1
}